#include <math.h>
#include <stdio.h>
#include <stdlib.h>
#include <string.h>

int main()
{
	char a;
	int flag=0,len=0;
	do{
		a=getchar();
		if((a==' '||a=='\n')&&len!=0)
		{
			if(flag++)
			{	printf(",%d",len);
			len=0;
			}
			else
			{	printf("%d",len);
			    len=0;
			}
		}
		else if(a!=' '&&a!='\n') len++;
	}while(a!='\n');
	return 0;
}