; ModuleID = '28/1848.c'
source_filename = "28/1848.c"
target datalayout = "e-m:e-p270:32:32-p271:32:32-p272:64:64-i64:64-f80:128-n8:16:32:64-S128"
target triple = "x86_64-pc-linux-gnu"

@.str = private unnamed_addr constant [4 x i8] c",%d\00", align 1
@.str.1 = private unnamed_addr constant [3 x i8] c"%d\00", align 1

; Function Attrs: noinline nounwind uwtable
define dso_local i32 @main() #0 {
  %1 = alloca i32, align 4
  %2 = alloca i8, align 1
  %3 = alloca i32, align 4
  %4 = alloca i32, align 4
  store i32 0, i32* %1, align 4
  store i32 0, i32* %3, align 4
  store i32 0, i32* %4, align 4
  br label %5

5:                                                ; preds = %42, %0
  %6 = call i32 @getchar()
  %7 = trunc i32 %6 to i8
  store i8 %7, i8* %2, align 1
  %8 = load i8, i8* %2, align 1
  %9 = sext i8 %8 to i32
  %10 = icmp eq i32 %9, 32
  br i1 %10, label %15, label %11

11:                                               ; preds = %5
  %12 = load i8, i8* %2, align 1
  %13 = sext i8 %12 to i32
  %14 = icmp eq i32 %13, 10
  br i1 %14, label %15, label %29

15:                                               ; preds = %11, %5
  %16 = load i32, i32* %4, align 4
  %17 = icmp ne i32 %16, 0
  br i1 %17, label %18, label %29

18:                                               ; preds = %15
  %19 = load i32, i32* %3, align 4
  %20 = add nsw i32 %19, 1
  store i32 %20, i32* %3, align 4
  %21 = icmp ne i32 %19, 0
  br i1 %21, label %22, label %25

22:                                               ; preds = %18
  %23 = load i32, i32* %4, align 4
  %24 = call i32 (i8*, ...) @printf(i8* getelementptr inbounds ([4 x i8], [4 x i8]* @.str, i64 0, i64 0), i32 %23)
  store i32 0, i32* %4, align 4
  br label %28

25:                                               ; preds = %18
  %26 = load i32, i32* %4, align 4
  %27 = call i32 (i8*, ...) @printf(i8* getelementptr inbounds ([3 x i8], [3 x i8]* @.str.1, i64 0, i64 0), i32 %26)
  store i32 0, i32* %4, align 4
  br label %28

28:                                               ; preds = %25, %22
  br label %41

29:                                               ; preds = %15, %11
  %30 = load i8, i8* %2, align 1
  %31 = sext i8 %30 to i32
  %32 = icmp ne i32 %31, 32
  br i1 %32, label %33, label %40

33:                                               ; preds = %29
  %34 = load i8, i8* %2, align 1
  %35 = sext i8 %34 to i32
  %36 = icmp ne i32 %35, 10
  br i1 %36, label %37, label %40

37:                                               ; preds = %33
  %38 = load i32, i32* %4, align 4
  %39 = add nsw i32 %38, 1
  store i32 %39, i32* %4, align 4
  br label %40

40:                                               ; preds = %37, %33, %29
  br label %41

41:                                               ; preds = %40, %28
  br label %42

42:                                               ; preds = %41
  %43 = load i8, i8* %2, align 1
  %44 = sext i8 %43 to i32
  %45 = icmp ne i32 %44, 10
  br i1 %45, label %5, label %46

46:                                               ; preds = %42
  ret i32 0
}

declare dso_local i32 @getchar() #1

declare dso_local i32 @printf(i8*, ...) #1


!llvm.module.flags = !{!0}
!llvm.ident = !{!1}

!0 = !{i32 1, !"wchar_size", i32 4}
!1 = !{!"clang version 10.0.0-4ubuntu1 "}
